target datalayout = "e-m:e-p270:32:32-p271:32:32-p272:64:64-i64:64-i128:128-f80:128-n8:16:32:64-S128"
target triple = "x86_64-pc-linux-gnu"

%"class.StringDedup::Table::Bucket" = type { %class.GrowableArrayCHeap, %class.GrowableArrayCHeap.0 }
%class.GrowableArrayCHeap = type { %class.GrowableArrayWithAllocator }
%class.GrowableArrayWithAllocator = type { %class.GrowableArrayView }
%class.GrowableArrayView = type { %class.GrowableArrayBase, ptr }
%class.GrowableArrayBase = type { i32, i32 }
%class.GrowableArrayCHeap.0 = type { %class.GrowableArrayWithAllocator.1 }
%class.GrowableArrayWithAllocator.1 = type { %class.GrowableArrayView.2 }
%class.GrowableArrayView.2 = type { %class.GrowableArrayBase, ptr }

@g_assert_poison = external global ptr, align 8
@.str = private unnamed_addr constant [61 x i8] c"src/hotspot/share/gc/shared/stringdedup/stringDedupTable.cpp\00", align 1
@_ZN11StringDedup5Table18_number_of_bucketsE = hidden global i64 0, align 8
@_ZN11StringDedup5Table8_bucketsE = hidden global ptr null, align 8
@_ZN11StringDedup5Table18_number_of_entriesE = hidden global i64 0, align 8
@_ZN11StringDedup5Table14_cleanup_stateE = hidden global ptr null, align 8
@.str.13 = private unnamed_addr constant [52 x i8] c"guarantee(total_count == _number_of_entries) failed\00", align 1
@.str.14 = private unnamed_addr constant [53 x i8] c"number of values mismatch: %zu counted, %zu recorded\00", align 1

; Function Attrs: mustprogress nounwind uwtable
define linkonce_odr hidden noundef i32 @_ZNK17GrowableArrayBase6lengthEv(ptr noundef nonnull align 4 dereferenceable(8) %0) #1 comdat align 2 {
  %2 = alloca ptr, align 8
  store ptr %0, ptr %2, align 8
  %3 = load ptr, ptr %2, align 8
  %4 = getelementptr inbounds %class.GrowableArrayBase, ptr %3, i32 0, i32 0
  %5 = load i32, ptr %4, align 4
  ret i32 %5
}

; Function Attrs: mustprogress nounwind uwtable
define linkonce_odr hidden noundef i32 @_ZNK11StringDedup5Table6Bucket6lengthEv(ptr noundef nonnull align 8 dereferenceable(32) %0) #1 comdat align 2 {
  %2 = alloca ptr, align 8
  store ptr %0, ptr %2, align 8
  %3 = load ptr, ptr %2, align 8
  %4 = getelementptr inbounds %"class.StringDedup::Table::Bucket", ptr %3, i32 0, i32 0
  %5 = call noundef i32 @_ZNK17GrowableArrayBase6lengthEv(ptr noundef nonnull align 4 dereferenceable(8) %4)
  ret i32 %5
}

; Function Attrs: mustprogress nounwind uwtable
define hidden void @_ZN11StringDedup5Table6verifyEv() #1 align 2 {
  %1 = alloca i64, align 8
  %2 = alloca i64, align 8
  store i64 0, ptr %1, align 8
  store i64 0, ptr %2, align 8
  br label %3

3:                                                ; preds = %20, %0
  %4 = load i64, ptr %2, align 8
  %5 = load i64, ptr @_ZN11StringDedup5Table18_number_of_bucketsE, align 8
  %6 = icmp ult i64 %4, %5
  br i1 %6, label %7, label %23

7:                                                ; preds = %3
  %8 = load ptr, ptr @_ZN11StringDedup5Table8_bucketsE, align 8
  %9 = load i64, ptr %2, align 8
  %10 = getelementptr inbounds %"class.StringDedup::Table::Bucket", ptr %8, i64 %9
  %11 = load i64, ptr %2, align 8
  %12 = load i64, ptr @_ZN11StringDedup5Table18_number_of_bucketsE, align 8
  call void @_ZNK11StringDedup5Table6Bucket6verifyEmm(ptr noundef nonnull align 8 dereferenceable(32) %10, i64 noundef %11, i64 noundef %12)
  %13 = load ptr, ptr @_ZN11StringDedup5Table8_bucketsE, align 8
  %14 = load i64, ptr %2, align 8
  %15 = getelementptr inbounds %"class.StringDedup::Table::Bucket", ptr %13, i64 %14
  %16 = call noundef i32 @_ZNK11StringDedup5Table6Bucket6lengthEv(ptr noundef nonnull align 8 dereferenceable(32) %15)
  %17 = sext i32 %16 to i64
  %18 = load i64, ptr %1, align 8
  %19 = add i64 %18, %17
  store i64 %19, ptr %1, align 8
  br label %20

20:                                               ; preds = %7
  %21 = load i64, ptr %2, align 8
  %22 = add i64 %21, 1
  store i64 %22, ptr %2, align 8
  br label %3, !llvm.loop !16

23:                                               ; preds = %3
  br label %24

24:                                               ; preds = %23
  %25 = load i64, ptr %1, align 8
  %26 = load i64, ptr @_ZN11StringDedup5Table18_number_of_entriesE, align 8
  %27 = icmp eq i64 %25, %26
  br i1 %27, label %32, label %28

28:                                               ; preds = %24
  %29 = load ptr, ptr @g_assert_poison, align 8
  store i8 88, ptr %29, align 1
  %30 = load i64, ptr %1, align 8
  %31 = load i64, ptr @_ZN11StringDedup5Table18_number_of_entriesE, align 8
  call void (ptr, i32, ptr, ptr, ...) @_Z15report_vm_errorPKciS0_S0_z(ptr noundef @.str, i32 noundef 720, ptr noundef @.str.13, ptr noundef @.str.14, i64 noundef %30, i64 noundef %31) #11
  unreachable

32:                                               ; preds = %24
  br label %33

33:                                               ; preds = %32
  %34 = load ptr, ptr @_ZN11StringDedup5Table14_cleanup_stateE, align 8
  %35 = icmp ne ptr %34, null
  br i1 %35, label %36, label %41

36:                                               ; preds = %33
  %37 = load ptr, ptr @_ZN11StringDedup5Table14_cleanup_stateE, align 8
  %38 = load ptr, ptr %37, align 8
  %39 = getelementptr inbounds ptr, ptr %38, i64 5
  %40 = load ptr, ptr %39, align 8
  call void %40(ptr noundef nonnull align 8 dereferenceable(8) %37)
  br label %41

41:                                               ; preds = %36, %33
  ret void
}