; Function Attrs: mustprogress nounwind uwtable
define hidden void @_ZN11StringDedup5Table6verifyEv() local_unnamed_addr #0 align 2 {
  %1 = load i64, ptr @_ZN11StringDedup5Table18_number_of_bucketsE, align 8
  %.not13 = icmp eq i64 %1, 0
  br i1 %.not13, label %._crit_edge, label %.lr.ph.preheader

.lr.ph.preheader:                                 ; preds = %0
  %.pre = load ptr, ptr @_ZN11StringDedup5Table8_bucketsE, align 8
  br label %.lr.ph

.lr.ph:                                           ; preds = %.lr.ph.preheader, %.lr.ph
  %2 = phi ptr [ %5, %.lr.ph ], [ %.pre, %.lr.ph.preheader ]
  %3 = phi i64 [ %11, %.lr.ph ], [ %1, %.lr.ph.preheader ]
  %.012 = phi i64 [ %10, %.lr.ph ], [ 0, %.lr.ph.preheader ]
  %.0811 = phi i64 [ %9, %.lr.ph ], [ 0, %.lr.ph.preheader ]
  %4 = getelementptr inbounds %"class.StringDedup::Table::Bucket", ptr %2, i64 %.012
  tail call void @_ZNK11StringDedup5Table6Bucket6verifyEmm(ptr noundef nonnull align 8 dereferenceable(32) %4, i64 noundef %.012, i64 noundef %3)
  %5 = load ptr, ptr @_ZN11StringDedup5Table8_bucketsE, align 8
  %6 = getelementptr inbounds %"class.StringDedup::Table::Bucket", ptr %5, i64 %.012
  %7 = load i32, ptr %6, align 4
  %8 = sext i32 %7 to i64
  %9 = add i64 %.0811, %8
  %10 = add nuw i64 %.012, 1
  %11 = load i64, ptr @_ZN11StringDedup5Table18_number_of_bucketsE, align 8
  %12 = icmp ult i64 %10, %11
  br i1 %12, label %.lr.ph, label %._crit_edge, !llvm.loop !19

._crit_edge:                                      ; preds = %.lr.ph, %0
  %.08.lcssa = phi i64 [ 0, %0 ], [ %9, %.lr.ph ]
  %13 = load i64, ptr @_ZN11StringDedup5Table18_number_of_entriesE, align 8
  %14 = icmp eq i64 %.08.lcssa, %13
  br i1 %14, label %18, label %15

15:                                               ; preds = %._crit_edge
  %16 = load ptr, ptr @g_assert_poison, align 8
  store i8 88, ptr %16, align 1
  %17 = load i64, ptr @_ZN11StringDedup5Table18_number_of_entriesE, align 8
  tail call void (ptr, i32, ptr, ptr, ...) @_Z15report_vm_errorPKciS0_S0_z(ptr noundef nonnull @.str, i32 noundef 720, ptr noundef nonnull @.str.13, ptr noundef nonnull @.str.14, i64 noundef %.08.lcssa, i64 noundef %17) #14
  unreachable

18:                                               ; preds = %._crit_edge
  %19 = load ptr, ptr @_ZN11StringDedup5Table14_cleanup_stateE, align 8
  %.not = icmp eq ptr %19, null
  br i1 %.not, label %24, label %20

20:                                               ; preds = %18
  %21 = load ptr, ptr %19, align 8
  %22 = getelementptr inbounds i8, ptr %21, i64 40
  %23 = load ptr, ptr %22, align 8
  tail call void %23(ptr noundef nonnull align 8 dereferenceable(8) %19) #13
  br label %24

24:                                               ; preds = %20, %18
  ret void
}